
build/output.elf:     file format elf32-littlearm

Disassembly of section .init:

00008000 <_start>:
    8000:	ea00005e 	b	8180 <main>
Disassembly of section .text:

00008004 <initPowersOfThree>:
    8004:	e92d4000 	push	{lr}
    8008:	e3a02001 	mov	r2, #1	; 0x1
    800c:	e8800004 	stm	r0, {r2}
    8010:	e2800004 	add	r0, r0, #4	; 0x4
    8014:	e3a0300f 	mov	r3, #15	; 0xf

00008018 <putZeroes>:
    8018:	e3a02000 	mov	r2, #0	; 0x0
    801c:	e8800004 	stm	r0, {r2}
    8020:	e2800004 	add	r0, r0, #4	; 0x4
    8024:	e2433001 	sub	r3, r3, #1	; 0x1
    8028:	e3530000 	cmp	r3, #0	; 0x0
    802c:	1afffff9 	bne	8018 <putZeroes>
    8030:	e3a030ff 	mov	r3, #255	; 0xff

00008034 <bigloop>:
    8034:	e2433001 	sub	r3, r3, #1	; 0x1
    8038:	e92d0008 	push	{r3}
    803c:	e3a03010 	mov	r3, #16	; 0x10
    8040:	e3a01000 	mov	r1, #0	; 0x0

00008044 <smallloop>:
    8044:	e2433001 	sub	r3, r3, #1	; 0x1
    8048:	e92d0008 	push	{r3}
    804c:	e3a03000 	mov	r3, #0	; 0x0
    8050:	e2400040 	sub	r0, r0, #64	; 0x40
    8054:	e5902000 	ldr	r2, [r0]
    8058:	e92d0001 	push	{r0}
    805c:	e1a00002 	mov	r0, r2
    8060:	e0922002 	adds	r2, r2, r2
    8064:	e2a33000 	adc	r3, r3, #0	; 0x0
    8068:	e0902002 	adds	r2, r0, r2
    806c:	e2a33000 	adc	r3, r3, #0	; 0x0
    8070:	e0912002 	adds	r2, r1, r2
    8074:	e2a33000 	adc	r3, r3, #0	; 0x0
    8078:	e1a01003 	mov	r1, r3
    807c:	e8bd0001 	pop	{r0}
    8080:	e2800040 	add	r0, r0, #64	; 0x40
    8084:	e8800004 	stm	r0, {r2}
    8088:	e2800004 	add	r0, r0, #4	; 0x4
    808c:	e8bd0008 	pop	{r3}
    8090:	e3530000 	cmp	r3, #0	; 0x0
    8094:	1affffea 	bne	8044 <smallloop>
    8098:	e8bd0008 	pop	{r3}
    809c:	e3530000 	cmp	r3, #0	; 0x0
    80a0:	1affffe3 	bne	8034 <bigloop>
    80a4:	e8bd8000 	pop	{pc}

000080a8 <GetSystemTimerBase>:
    80a8:	e59f0034 	ldr	r0, [pc, #52]	; 80e4 <loop+0x14>
    80ac:	e1a0f00e 	mov	pc, lr

000080b0 <GetTimeStamp>:
    80b0:	e92d4000 	push	{lr}
    80b4:	ebfffffb 	bl	80a8 <GetSystemTimerBase>
    80b8:	e1c000d4 	ldrd	r0, [r0, #4]
    80bc:	e8bd8000 	pop	{pc}

000080c0 <WaitMicroSec>:
    80c0:	e1a02000 	mov	r2, r0
    80c4:	e92d4000 	push	{lr}
    80c8:	ebfffff8 	bl	80b0 <GetTimeStamp>
    80cc:	e1a03000 	mov	r3, r0

000080d0 <loop>:
    80d0:	ebfffff6 	bl	80b0 <GetTimeStamp>
    80d4:	e0401003 	sub	r1, r0, r3
    80d8:	e1510002 	cmp	r1, r2
    80dc:	9afffffb 	bls	80d0 <loop>
    80e0:	e8bd8000 	pop	{pc}
    80e4:	20003000 	.word	0x20003000

000080e8 <GetGpioAddress>:
    80e8:	e59f008c 	ldr	r0, [pc, #140]	; 817c <SetGpio+0x3c>
    80ec:	e1a0f00e 	mov	pc, lr

000080f0 <SetGpioFunction>:
    80f0:	e3500035 	cmp	r0, #53	; 0x35
    80f4:	93510007 	cmpls	r1, #7	; 0x7
    80f8:	81a0f00e 	movhi	pc, lr
    80fc:	e92d4000 	push	{lr}
    8100:	e1a02000 	mov	r2, r0
    8104:	ebfffff7 	bl	80e8 <GetGpioAddress>

00008108 <functionLoop$>:
    8108:	e3520009 	cmp	r2, #9	; 0x9
    810c:	8242200a 	subhi	r2, r2, #10	; 0xa
    8110:	82800004 	addhi	r0, r0, #4	; 0x4
    8114:	8afffffb 	bhi	8108 <functionLoop$>
    8118:	e0822082 	add	r2, r2, r2, lsl #1
    811c:	e1a01211 	lsl	r1, r1, r2
    8120:	e3a03007 	mov	r3, #7	; 0x7
    8124:	e1a03213 	lsl	r3, r3, r2
    8128:	e1e03003 	mvn	r3, r3
    812c:	e5902000 	ldr	r2, [r0]
    8130:	e0022003 	and	r2, r2, r3
    8134:	e1811002 	orr	r1, r1, r2
    8138:	e5801000 	str	r1, [r0]
    813c:	e8bd8000 	pop	{pc}

00008140 <SetGpio>:
    8140:	e3500035 	cmp	r0, #53	; 0x35
    8144:	81a0f00e 	movhi	pc, lr
    8148:	e92d4000 	push	{lr}
    814c:	e1a02000 	mov	r2, r0
    8150:	ebffffe4 	bl	80e8 <GetGpioAddress>
    8154:	e1a032a2 	lsr	r3, r2, #5
    8158:	e1a03103 	lsl	r3, r3, #2
    815c:	e0800003 	add	r0, r0, r3
    8160:	e202201f 	and	r2, r2, #31	; 0x1f
    8164:	e3a03001 	mov	r3, #1	; 0x1
    8168:	e1a03213 	lsl	r3, r3, r2
    816c:	e3310000 	teq	r1, #0	; 0x0
    8170:	05803028 	streq	r3, [r0, #40]
    8174:	1580301c 	strne	r3, [r0, #28]
    8178:	e8bd8000 	pop	{pc}
    817c:	20200000 	.word	0x20200000

00008180 <main>:
    8180:	e3a0d902 	mov	sp, #32768	; 0x8000
    8184:	e3a0002f 	mov	r0, #47	; 0x2f
    8188:	e3a01001 	mov	r1, #1	; 0x1
    818c:	ebffffd7 	bl	80f0 <SetGpioFunction>
    8190:	eb00012d 	bl	864c <InitMatrix>
    8194:	e3a00702 	mov	r0, #524288	; 0x80000
    8198:	ebffff99 	bl	8004 <initPowersOfThree>
    819c:	e59f0030 	ldr	r0, [pc, #48]	; 81d4 <infloop+0x1c>
    81a0:	e5900000 	ldr	r0, [r0]
    81a4:	e3a0104b 	mov	r1, #75	; 0x4b
    81a8:	eb00004f 	bl	82ec <SlideNumber>
    81ac:	e3a0002f 	mov	r0, #47	; 0x2f
    81b0:	e3a01001 	mov	r1, #1	; 0x1
    81b4:	ebffffe1 	bl	8140 <SetGpio>

000081b8 <infloop>:
    81b8:	e59f0018 	ldr	r0, [pc, #24]	; 81d8 <infloop+0x20>
    81bc:	e3a01032 	mov	r1, #50	; 0x32
    81c0:	eb000049 	bl	82ec <SlideNumber>
    81c4:	e3a0002a 	mov	r0, #42	; 0x2a
    81c8:	e3a01032 	mov	r1, #50	; 0x32
    81cc:	eb000046 	bl	82ec <SlideNumber>
    81d0:	eafffff8 	b	81b8 <infloop>
    81d4:	00083ff0 	.word	0x00083ff0
    81d8:	00000539 	.word	0x00000539

000081dc <IntDiv>:
    81dc:	e92d0070 	push	{r4, r5, r6}
    81e0:	e3530000 	cmp	r3, #0	; 0x0
    81e4:	01a0f00e 	moveq	pc, lr
    81e8:	e3a00000 	mov	r0, #0	; 0x0
    81ec:	e16f5f12 	clz	r5, r2
    81f0:	e16f6f13 	clz	r6, r3
    81f4:	e3a04000 	mov	r4, #0	; 0x0
    81f8:	e1550006 	cmp	r5, r6
    81fc:	8a000001 	bhi	8208 <skip>
    8200:	e0464005 	sub	r4, r6, r5
    8204:	e1a03413 	lsl	r3, r3, r4

00008208 <skip>:
    8208:	e1a01002 	mov	r1, r2

0000820c <subtract>:
    820c:	e1530001 	cmp	r3, r1
    8210:	8a000001 	bhi	821c <skip2>
    8214:	e0411003 	sub	r1, r1, r3
    8218:	e2800001 	add	r0, r0, #1	; 0x1

0000821c <skip2>:
    821c:	e3540000 	cmp	r4, #0	; 0x0
    8220:	0a000003 	beq	8234 <end>
    8224:	e1a00080 	lsl	r0, r0, #1
    8228:	e1a030a3 	lsr	r3, r3, #1
    822c:	e2444001 	sub	r4, r4, #1	; 0x1
    8230:	eafffff5 	b	820c <subtract>

00008234 <end>:
    8234:	e8bd0070 	pop	{r4, r5, r6}
    8238:	e1a0f00e 	mov	pc, lr

0000823c <BlinkDigit>:
    823c:	e92d4000 	push	{lr}
    8240:	e3500009 	cmp	r0, #9	; 0x9
    8244:	88bd8000 	pophi	{pc}
    8248:	e0822100 	add	r2, r2, r0, lsl #2
    824c:	e5922000 	ldr	r2, [r2]
    8250:	e3a0301f 	mov	r3, #31	; 0x1f

00008254 <loop>:
    8254:	e3a01001 	mov	r1, #1	; 0x1
    8258:	e1a01311 	lsl	r1, r1, r3
    825c:	e0011002 	and	r1, r1, r2
    8260:	e92d000c 	push	{r2, r3}
    8264:	e3a0002f 	mov	r0, #47	; 0x2f
    8268:	ebffffb4 	bl	8140 <SetGpio>
    826c:	e59f0074 	ldr	r0, [pc, #116]	; 82e8 <blinkDigits+0x24>
    8270:	ebffff92 	bl	80c0 <WaitMicroSec>
    8274:	e8bd000c 	pop	{r2, r3}
    8278:	e3530000 	cmp	r3, #0	; 0x0
    827c:	0a000001 	beq	8288 <end>
    8280:	e2433001 	sub	r3, r3, #1	; 0x1
    8284:	eafffff2 	b	8254 <loop>

00008288 <end>:
    8288:	e8bd8000 	pop	{pc}

0000828c <BlinkSingleRegister>:
    828c:	e92d4000 	push	{lr}
    8290:	e92d0070 	push	{r4, r5, r6}
    8294:	e1a02000 	mov	r2, r0
    8298:	e3a00000 	mov	r0, #0	; 0x0
    829c:	e3a0300a 	mov	r3, #10	; 0xa

000082a0 <cumulateDigits>:
    82a0:	e2800001 	add	r0, r0, #1	; 0x1
    82a4:	e92d0009 	push	{r0, r3}
    82a8:	ebffffcb 	bl	81dc <IntDiv>
    82ac:	e1a02000 	mov	r2, r0
    82b0:	e8bd0009 	pop	{r0, r3}
    82b4:	e92d0002 	push	{r1}
    82b8:	e3520000 	cmp	r2, #0	; 0x0
    82bc:	1afffff7 	bne	82a0 <cumulateDigits>
    82c0:	e1a02000 	mov	r2, r0

000082c4 <blinkDigits>:
    82c4:	e8bd0001 	pop	{r0}
    82c8:	e92d0004 	push	{r2}
    82cc:	ebffffda 	bl	823c <BlinkDigit>
    82d0:	e8bd0004 	pop	{r2}
    82d4:	e2422001 	sub	r2, r2, #1	; 0x1
    82d8:	e3520000 	cmp	r2, #0	; 0x0
    82dc:	1afffff8 	bne	82c4 <blinkDigits>
    82e0:	e8bd0070 	pop	{r4, r5, r6}
    82e4:	e8bd8000 	pop	{pc}
    82e8:	0003d090 	.word	0x0003d090

000082ec <SlideNumber>:
    82ec:	e92d4000 	push	{lr}
    82f0:	e92d0010 	push	{r4}
    82f4:	e1a04001 	mov	r4, r1
    82f8:	e1a02000 	mov	r2, r0
    82fc:	e3a00000 	mov	r0, #0	; 0x0
    8300:	e3a0300a 	mov	r3, #10	; 0xa
    8304:	e3a0100b 	mov	r1, #11	; 0xb
    8308:	e92d0002 	push	{r1}

0000830c <cumulateDigits>:
    830c:	e2800001 	add	r0, r0, #1	; 0x1
    8310:	e92d0009 	push	{r0, r3}
    8314:	ebffffb0 	bl	81dc <IntDiv>
    8318:	e1a02000 	mov	r2, r0
    831c:	e8bd0009 	pop	{r0, r3}
    8320:	e92d0002 	push	{r1}
    8324:	e3520000 	cmp	r2, #0	; 0x0
    8328:	1afffff7 	bne	830c <cumulateDigits>
    832c:	e3a0100b 	mov	r1, #11	; 0xb
    8330:	e2800001 	add	r0, r0, #1	; 0x1
    8334:	e92d0002 	push	{r1}
    8338:	e1a03000 	mov	r3, r0
    833c:	e8bd0002 	pop	{r1}

00008340 <displayDigits>:
    8340:	e1a00001 	mov	r0, r1
    8344:	e8bd0002 	pop	{r1}
    8348:	e1a02004 	mov	r2, r4
    834c:	e92d000a 	push	{r1, r3}
    8350:	eb000081 	bl	855c <SlideLeft>
    8354:	e8bd000a 	pop	{r1, r3}
    8358:	e2433001 	sub	r3, r3, #1	; 0x1
    835c:	e3530000 	cmp	r3, #0	; 0x0
    8360:	1afffff6 	bne	8340 <displayDigits>
    8364:	e8bd0010 	pop	{r4}
    8368:	e8bd8000 	pop	{pc}

0000836c <DisplayDoubleRegister>:
    836c:	e92d4000 	push	{lr}
    8370:	e92d0030 	push	{r4, r5}
    8374:	e3e03000 	mvn	r3, #0	; 0x0
    8378:	e0200003 	eor	r0, r0, r3
    837c:	e0211003 	eor	r1, r1, r3
    8380:	e1a021a2 	lsr	r2, r2, #3

00008384 <TimedLoop>:
    8384:	e92d0004 	push	{r2}
    8388:	e3a02004 	mov	r2, #4	; 0x4
    838c:	e59f53b0 	ldr	r5, [pc, #944]	; 8744 <TurnOffMatrix+0xc8>

00008390 <RegisterZeroLoop>:
    8390:	e2422001 	sub	r2, r2, #1	; 0x1
    8394:	e3a030ff 	mov	r3, #255	; 0xff
    8398:	e1a04182 	lsl	r4, r2, #3
    839c:	e1a03413 	lsl	r3, r3, r4
    83a0:	e0003003 	and	r3, r0, r3
    83a4:	e1a03433 	lsr	r3, r3, r4
    83a8:	e1a04003 	mov	r4, r3
    83ac:	e92d000f 	push	{r0, r1, r2, r3}
    83b0:	e2041001 	and	r1, r4, #1	; 0x1
    83b4:	e1a040a4 	lsr	r4, r4, #1
    83b8:	e3a00009 	mov	r0, #9	; 0x9
    83bc:	ebffff5f 	bl	8140 <SetGpio>
    83c0:	e2041001 	and	r1, r4, #1	; 0x1
    83c4:	e1a040a4 	lsr	r4, r4, #1
    83c8:	e3a00008 	mov	r0, #8	; 0x8
    83cc:	ebffff5b 	bl	8140 <SetGpio>
    83d0:	e2041001 	and	r1, r4, #1	; 0x1
    83d4:	e1a040a4 	lsr	r4, r4, #1
    83d8:	e3a00006 	mov	r0, #6	; 0x6
    83dc:	ebffff57 	bl	8140 <SetGpio>
    83e0:	e2041001 	and	r1, r4, #1	; 0x1
    83e4:	e1a040a4 	lsr	r4, r4, #1
    83e8:	e3a00004 	mov	r0, #4	; 0x4
    83ec:	ebffff53 	bl	8140 <SetGpio>
    83f0:	e2041001 	and	r1, r4, #1	; 0x1
    83f4:	e1a040a4 	lsr	r4, r4, #1
    83f8:	e3a00005 	mov	r0, #5	; 0x5
    83fc:	ebffff4f 	bl	8140 <SetGpio>
    8400:	e2041001 	and	r1, r4, #1	; 0x1
    8404:	e1a040a4 	lsr	r4, r4, #1
    8408:	e3a00003 	mov	r0, #3	; 0x3
    840c:	ebffff4b 	bl	8140 <SetGpio>
    8410:	e2041001 	and	r1, r4, #1	; 0x1
    8414:	e1a040a4 	lsr	r4, r4, #1
    8418:	e3a00002 	mov	r0, #2	; 0x2
    841c:	ebffff47 	bl	8140 <SetGpio>
    8420:	e2041001 	and	r1, r4, #1	; 0x1
    8424:	e1a040a4 	lsr	r4, r4, #1
    8428:	e3a00007 	mov	r0, #7	; 0x7
    842c:	ebffff43 	bl	8140 <SetGpio>
    8430:	e20500ff 	and	r0, r5, #255	; 0xff
    8434:	e92d0001 	push	{r0}
    8438:	e1a05425 	lsr	r5, r5, #8
    843c:	e3a01001 	mov	r1, #1	; 0x1
    8440:	ebffff3e 	bl	8140 <SetGpio>
    8444:	e3a00ffa 	mov	r0, #1000	; 0x3e8
    8448:	ebffff1c 	bl	80c0 <WaitMicroSec>
    844c:	e8bd0001 	pop	{r0}
    8450:	e3a01000 	mov	r1, #0	; 0x0
    8454:	ebffff39 	bl	8140 <SetGpio>
    8458:	e8bd000f 	pop	{r0, r1, r2, r3}
    845c:	e3520000 	cmp	r2, #0	; 0x0
    8460:	1affffca 	bne	8390 <RegisterZeroLoop>
    8464:	e3a02004 	mov	r2, #4	; 0x4
    8468:	e59f52d8 	ldr	r5, [pc, #728]	; 8748 <TurnOffMatrix+0xcc>

0000846c <RegisterOneLoop>:
    846c:	e2422001 	sub	r2, r2, #1	; 0x1
    8470:	e3a030ff 	mov	r3, #255	; 0xff
    8474:	e1a04182 	lsl	r4, r2, #3
    8478:	e1a03413 	lsl	r3, r3, r4
    847c:	e0013003 	and	r3, r1, r3
    8480:	e1a03433 	lsr	r3, r3, r4
    8484:	e1a04003 	mov	r4, r3
    8488:	e92d000f 	push	{r0, r1, r2, r3}
    848c:	e2041001 	and	r1, r4, #1	; 0x1
    8490:	e1a040a4 	lsr	r4, r4, #1
    8494:	e3a00009 	mov	r0, #9	; 0x9
    8498:	ebffff28 	bl	8140 <SetGpio>
    849c:	e2041001 	and	r1, r4, #1	; 0x1
    84a0:	e1a040a4 	lsr	r4, r4, #1
    84a4:	e3a00008 	mov	r0, #8	; 0x8
    84a8:	ebffff24 	bl	8140 <SetGpio>
    84ac:	e2041001 	and	r1, r4, #1	; 0x1
    84b0:	e1a040a4 	lsr	r4, r4, #1
    84b4:	e3a00006 	mov	r0, #6	; 0x6
    84b8:	ebffff20 	bl	8140 <SetGpio>
    84bc:	e2041001 	and	r1, r4, #1	; 0x1
    84c0:	e1a040a4 	lsr	r4, r4, #1
    84c4:	e3a00004 	mov	r0, #4	; 0x4
    84c8:	ebffff1c 	bl	8140 <SetGpio>
    84cc:	e2041001 	and	r1, r4, #1	; 0x1
    84d0:	e1a040a4 	lsr	r4, r4, #1
    84d4:	e3a00005 	mov	r0, #5	; 0x5
    84d8:	ebffff18 	bl	8140 <SetGpio>
    84dc:	e2041001 	and	r1, r4, #1	; 0x1
    84e0:	e1a040a4 	lsr	r4, r4, #1
    84e4:	e3a00003 	mov	r0, #3	; 0x3
    84e8:	ebffff14 	bl	8140 <SetGpio>
    84ec:	e2041001 	and	r1, r4, #1	; 0x1
    84f0:	e1a040a4 	lsr	r4, r4, #1
    84f4:	e3a00002 	mov	r0, #2	; 0x2
    84f8:	ebffff10 	bl	8140 <SetGpio>
    84fc:	e2041001 	and	r1, r4, #1	; 0x1
    8500:	e1a040a4 	lsr	r4, r4, #1
    8504:	e3a00007 	mov	r0, #7	; 0x7
    8508:	ebffff0c 	bl	8140 <SetGpio>
    850c:	e20500ff 	and	r0, r5, #255	; 0xff
    8510:	e92d0001 	push	{r0}
    8514:	e1a05425 	lsr	r5, r5, #8
    8518:	e3a01001 	mov	r1, #1	; 0x1
    851c:	ebffff07 	bl	8140 <SetGpio>
    8520:	e3a00ffa 	mov	r0, #1000	; 0x3e8
    8524:	ebfffee5 	bl	80c0 <WaitMicroSec>
    8528:	e8bd0001 	pop	{r0}
    852c:	e3a01000 	mov	r1, #0	; 0x0
    8530:	ebffff02 	bl	8140 <SetGpio>
    8534:	e8bd000f 	pop	{r0, r1, r2, r3}
    8538:	e3520000 	cmp	r2, #0	; 0x0
    853c:	1affffca 	bne	846c <RegisterOneLoop>
    8540:	e8bd0004 	pop	{r2}
    8544:	e2422001 	sub	r2, r2, #1	; 0x1
    8548:	e3520000 	cmp	r2, #0	; 0x0
    854c:	1affff8c 	bne	8384 <TimedLoop>
    8550:	e8bd0030 	pop	{r4, r5}
    8554:	eb000048 	bl	867c <TurnOffMatrix>
    8558:	e8bd8000 	pop	{pc}

0000855c <SlideLeft>:
    855c:	e92d4000 	push	{lr}
    8560:	e350000b 	cmp	r0, #11	; 0xb
    8564:	88bd8000 	pophi	{pc}
    8568:	e351000b 	cmp	r1, #11	; 0xb
    856c:	88bd8000 	pophi	{pc}
    8570:	e92d07f0 	push	{r4, r5, r6, r7, r8, r9, sl}
    8574:	e1a00180 	lsl	r0, r0, #3
    8578:	e1a01181 	lsl	r1, r1, #3
    857c:	e59f31c8 	ldr	r3, [pc, #456]	; 874c <TurnOffMatrix+0xd0>
    8580:	e0800003 	add	r0, r0, r3
    8584:	e0811003 	add	r1, r1, r3
    8588:	e5904000 	ldr	r4, [r0]
    858c:	e5916000 	ldr	r6, [r1]
    8590:	e2800004 	add	r0, r0, #4	; 0x4
    8594:	e2811004 	add	r1, r1, #4	; 0x4
    8598:	e5905000 	ldr	r5, [r0]
    859c:	e5917000 	ldr	r7, [r1]
    85a0:	e3e08000 	mvn	r8, #0	; 0x0
    85a4:	e3a09000 	mov	r9, #0	; 0x0
    85a8:	e3a03000 	mov	r3, #0	; 0x0

000085ac <looping>:
    85ac:	e1a00006 	mov	r0, r6
    85b0:	e3a0a008 	mov	sl, #8	; 0x8
    85b4:	e04aa003 	sub	sl, sl, r3
    85b8:	e1a00a30 	lsr	r0, r0, sl
    85bc:	e0000009 	and	r0, r0, r9
    85c0:	e0044008 	and	r4, r4, r8
    85c4:	e0800004 	add	r0, r0, r4
    85c8:	e1a01007 	mov	r1, r7
    85cc:	e1a01a31 	lsr	r1, r1, sl
    85d0:	e0011009 	and	r1, r1, r9
    85d4:	e0055008 	and	r5, r5, r8
    85d8:	e0811005 	add	r1, r1, r5
    85dc:	e92d000c 	push	{r2, r3}
    85e0:	ebffff61 	bl	836c <DisplayDoubleRegister>
    85e4:	e8bd000c 	pop	{r2, r3}
    85e8:	e1a09089 	lsl	r9, r9, #1
    85ec:	e59fa15c 	ldr	sl, [pc, #348]	; 8750 <TurnOffMatrix+0xd4>
    85f0:	e089900a 	add	r9, r9, sl
    85f4:	e3e0a000 	mvn	sl, #0	; 0x0
    85f8:	e029800a 	eor	r8, r9, sl
    85fc:	e1a04084 	lsl	r4, r4, #1
    8600:	e1a05085 	lsl	r5, r5, #1
    8604:	e2833001 	add	r3, r3, #1	; 0x1
    8608:	e3530008 	cmp	r3, #8	; 0x8
    860c:	1affffe6 	bne	85ac <looping>
    8610:	e8bd07f0 	pop	{r4, r5, r6, r7, r8, r9, sl}
    8614:	e8bd8000 	pop	{pc}

00008618 <MatrixDigit>:
    8618:	e92d4000 	push	{lr}
    861c:	e350000a 	cmp	r0, #10	; 0xa
    8620:	88bd8000 	pophi	{pc}
    8624:	e1a02000 	mov	r2, r0
    8628:	e1a02182 	lsl	r2, r2, #3
    862c:	e59f3118 	ldr	r3, [pc, #280]	; 874c <TurnOffMatrix+0xd0>
    8630:	e0822003 	add	r2, r2, r3
    8634:	e5920000 	ldr	r0, [r2]
    8638:	e2822004 	add	r2, r2, #4	; 0x4
    863c:	e5921000 	ldr	r1, [r2]
    8640:	e3a02ffa 	mov	r2, #1000	; 0x3e8
    8644:	ebffff48 	bl	836c <DisplayDoubleRegister>
    8648:	e8bd8000 	pop	{pc}

0000864c <InitMatrix>:
    864c:	e92d4000 	push	{lr}
    8650:	e3a02002 	mov	r2, #2	; 0x2

00008654 <forloop>:
    8654:	e1a00002 	mov	r0, r2
    8658:	e3a01001 	mov	r1, #1	; 0x1
    865c:	e92d0004 	push	{r2}
    8660:	ebfffea2 	bl	80f0 <SetGpioFunction>
    8664:	e8bd0004 	pop	{r2}
    8668:	e2822001 	add	r2, r2, #1	; 0x1
    866c:	e3520012 	cmp	r2, #18	; 0x12
    8670:	1afffff7 	bne	8654 <forloop>
    8674:	eb000000 	bl	867c <TurnOffMatrix>
    8678:	e8bd8000 	pop	{pc}

0000867c <TurnOffMatrix>:
    867c:	e92d4000 	push	{lr}
    8680:	e3a00002 	mov	r0, #2	; 0x2
    8684:	e3a01001 	mov	r1, #1	; 0x1
    8688:	ebfffeac 	bl	8140 <SetGpio>
    868c:	e3a00003 	mov	r0, #3	; 0x3
    8690:	e3a01001 	mov	r1, #1	; 0x1
    8694:	ebfffea9 	bl	8140 <SetGpio>
    8698:	e3a00004 	mov	r0, #4	; 0x4
    869c:	e3a01001 	mov	r1, #1	; 0x1
    86a0:	ebfffea6 	bl	8140 <SetGpio>
    86a4:	e3a00005 	mov	r0, #5	; 0x5
    86a8:	e3a01001 	mov	r1, #1	; 0x1
    86ac:	ebfffea3 	bl	8140 <SetGpio>
    86b0:	e3a00006 	mov	r0, #6	; 0x6
    86b4:	e3a01001 	mov	r1, #1	; 0x1
    86b8:	ebfffea0 	bl	8140 <SetGpio>
    86bc:	e3a00007 	mov	r0, #7	; 0x7
    86c0:	e3a01001 	mov	r1, #1	; 0x1
    86c4:	ebfffe9d 	bl	8140 <SetGpio>
    86c8:	e3a00008 	mov	r0, #8	; 0x8
    86cc:	e3a01001 	mov	r1, #1	; 0x1
    86d0:	ebfffe9a 	bl	8140 <SetGpio>
    86d4:	e3a00009 	mov	r0, #9	; 0x9
    86d8:	e3a01001 	mov	r1, #1	; 0x1
    86dc:	ebfffe97 	bl	8140 <SetGpio>
    86e0:	e3a0000a 	mov	r0, #10	; 0xa
    86e4:	e3a01000 	mov	r1, #0	; 0x0
    86e8:	ebfffe94 	bl	8140 <SetGpio>
    86ec:	e3a0000b 	mov	r0, #11	; 0xb
    86f0:	e3a01000 	mov	r1, #0	; 0x0
    86f4:	ebfffe91 	bl	8140 <SetGpio>
    86f8:	e3a0000c 	mov	r0, #12	; 0xc
    86fc:	e3a01000 	mov	r1, #0	; 0x0
    8700:	ebfffe8e 	bl	8140 <SetGpio>
    8704:	e3a0000d 	mov	r0, #13	; 0xd
    8708:	e3a01000 	mov	r1, #0	; 0x0
    870c:	ebfffe8b 	bl	8140 <SetGpio>
    8710:	e3a0000e 	mov	r0, #14	; 0xe
    8714:	e3a01000 	mov	r1, #0	; 0x0
    8718:	ebfffe88 	bl	8140 <SetGpio>
    871c:	e3a0000f 	mov	r0, #15	; 0xf
    8720:	e3a01000 	mov	r1, #0	; 0x0
    8724:	ebfffe85 	bl	8140 <SetGpio>
    8728:	e3a00010 	mov	r0, #16	; 0x10
    872c:	e3a01000 	mov	r1, #0	; 0x0
    8730:	ebfffe82 	bl	8140 <SetGpio>
    8734:	e3a00011 	mov	r0, #17	; 0x11
    8738:	e3a01000 	mov	r1, #0	; 0x0
    873c:	ebfffe7f 	bl	8140 <SetGpio>
    8740:	e8bd8000 	pop	{pc}
    8744:	100e110f 	.word	0x100e110f
    8748:	0c0b0d0a 	.word	0x0c0b0d0a
    874c:	00008780 	.word	0x00008780
    8750:	01010101 	.word	0x01010101
